target datalayout = "e-m:e-p270:32:32-p271:32:32-p272:64:64-i64:64-i128:128-f80:128-n8:16:32:64-S128"
target triple = "x86_64-pc-linux-gnu"

@hf_cbsp_lac = internal global i32 0, align 4
@hf_cbsp_ci = internal global i32 0, align 4
@.str.163 = private unnamed_addr constant [28 x i8] c": %s, LAC 0x%04x, CI 0x%04x\00", align 1
@.str.164 = private unnamed_addr constant [23 x i8] c": LAC 0%04x, CI 0x%04x\00", align 1
@.str.165 = private unnamed_addr constant [12 x i8] c": CI 0x%04x\00", align 1
@.str.166 = private unnamed_addr constant [17 x i8] c": %s, LAC 0x%04x\00", align 1
@.str.167 = private unnamed_addr constant [13 x i8] c": LAC 0x%04x\00", align 1

; Function Attrs: null_pointer_is_valid sspstrong uwtable
define internal i32 @dissect_cell_id_elem(i8 noundef zeroext %0, ptr noundef %1, ptr noundef %2, i32 noundef %3, i32 noundef %4, ptr noundef %5, ptr noundef %6) #0 {
  %8 = alloca i32, align 4
  %9 = alloca i8, align 1
  %10 = alloca ptr, align 8
  %11 = alloca ptr, align 8
  %12 = alloca i32, align 4
  %13 = alloca i32, align 4
  %14 = alloca ptr, align 8
  %15 = alloca ptr, align 8
  %16 = alloca i32, align 4
  %17 = alloca ptr, align 8
  %18 = alloca i32, align 4
  %19 = alloca i32, align 4
  %20 = alloca i32, align 4
  store i8 %0, ptr %9, align 1
  store ptr %1, ptr %10, align 8
  store ptr %2, ptr %11, align 8
  store i32 %3, ptr %12, align 4
  store i32 %4, ptr %13, align 4
  store ptr %5, ptr %14, align 8
  store ptr %6, ptr %15, align 8
  call void @llvm.lifetime.start.p0(i64 4, ptr %16) #5
  %21 = load i32, ptr %12, align 4
  store i32 %21, ptr %16, align 4
  call void @llvm.lifetime.start.p0(i64 8, ptr %17) #5
  call void @llvm.lifetime.start.p0(i64 4, ptr %18) #5
  call void @llvm.lifetime.start.p0(i64 4, ptr %19) #5
  %22 = load i8, ptr %9, align 1
  %23 = zext i8 %22 to i32
  switch i32 %23, label %106 [
    i32 0, label %24
    i32 1, label %50
    i32 2, label %68
    i32 4, label %78
    i32 5, label %96
    i32 6, label %107
  ]

24:                                               ; preds = %7
  %25 = load ptr, ptr %10, align 8
  %26 = load ptr, ptr %11, align 8
  %27 = load ptr, ptr %14, align 8
  %28 = load i32, ptr %12, align 4
  %29 = call ptr @dissect_e212_mcc_mnc_wmem_packet_str(ptr noundef %25, ptr noundef %26, ptr noundef %27, i32 noundef %28, i32 noundef 0, i1 noundef zeroext true)
  store ptr %29, ptr %17, align 8
  %30 = load i32, ptr %12, align 4
  %31 = add i32 %30, 3
  store i32 %31, ptr %12, align 4
  %32 = load ptr, ptr %14, align 8
  %33 = load i32, ptr @hf_cbsp_lac, align 4
  %34 = load ptr, ptr %10, align 8
  %35 = load i32, ptr %12, align 4
  %36 = call ptr @proto_tree_add_item_ret_uint(ptr noundef %32, i32 noundef %33, ptr noundef %34, i32 noundef %35, i32 noundef 2, i32 noundef 0, ptr noundef %18)
  %37 = load i32, ptr %12, align 4
  %38 = add i32 %37, 2
  store i32 %38, ptr %12, align 4
  %39 = load ptr, ptr %14, align 8
  %40 = load i32, ptr @hf_cbsp_ci, align 4
  %41 = load ptr, ptr %10, align 8
  %42 = load i32, ptr %12, align 4
  %43 = call ptr @proto_tree_add_item_ret_uint(ptr noundef %39, i32 noundef %40, ptr noundef %41, i32 noundef %42, i32 noundef 2, i32 noundef 0, ptr noundef %19)
  %44 = load i32, ptr %12, align 4
  %45 = add i32 %44, 2
  store i32 %45, ptr %12, align 4
  %46 = load ptr, ptr %15, align 8
  %47 = load ptr, ptr %17, align 8
  %48 = load i32, ptr %18, align 4
  %49 = load i32, ptr %19, align 4
  call void (ptr, ptr, ...) @proto_item_append_text(ptr noundef %46, ptr noundef @.str.163, ptr noundef %47, i32 noundef %48, i32 noundef %49)
  br label %107

50:                                               ; preds = %7
  %51 = load ptr, ptr %14, align 8
  %52 = load i32, ptr @hf_cbsp_lac, align 4
  %53 = load ptr, ptr %10, align 8
  %54 = load i32, ptr %12, align 4
  %55 = call ptr @proto_tree_add_item_ret_uint(ptr noundef %51, i32 noundef %52, ptr noundef %53, i32 noundef %54, i32 noundef 2, i32 noundef 0, ptr noundef %18)
  %56 = load i32, ptr %12, align 4
  %57 = add i32 %56, 2
  store i32 %57, ptr %12, align 4
  %58 = load ptr, ptr %14, align 8
  %59 = load i32, ptr @hf_cbsp_ci, align 4
  %60 = load ptr, ptr %10, align 8
  %61 = load i32, ptr %12, align 4
  %62 = call ptr @proto_tree_add_item_ret_uint(ptr noundef %58, i32 noundef %59, ptr noundef %60, i32 noundef %61, i32 noundef 2, i32 noundef 0, ptr noundef %19)
  %63 = load i32, ptr %12, align 4
  %64 = add i32 %63, 2
  store i32 %64, ptr %12, align 4
  %65 = load ptr, ptr %15, align 8
  %66 = load i32, ptr %18, align 4
  %67 = load i32, ptr %19, align 4
  call void (ptr, ptr, ...) @proto_item_append_text(ptr noundef %65, ptr noundef @.str.164, i32 noundef %66, i32 noundef %67)
  br label %107

68:                                               ; preds = %7
  %69 = load ptr, ptr %14, align 8
  %70 = load i32, ptr @hf_cbsp_ci, align 4
  %71 = load ptr, ptr %10, align 8
  %72 = load i32, ptr %12, align 4
  %73 = call ptr @proto_tree_add_item_ret_uint(ptr noundef %69, i32 noundef %70, ptr noundef %71, i32 noundef %72, i32 noundef 2, i32 noundef 0, ptr noundef %19)
  %74 = load i32, ptr %12, align 4
  %75 = add i32 %74, 2
  store i32 %75, ptr %12, align 4
  %76 = load ptr, ptr %15, align 8
  %77 = load i32, ptr %19, align 4
  call void (ptr, ptr, ...) @proto_item_append_text(ptr noundef %76, ptr noundef @.str.165, i32 noundef %77)
  br label %107

78:                                               ; preds = %7
  %79 = load ptr, ptr %10, align 8
  %80 = load ptr, ptr %11, align 8
  %81 = load ptr, ptr %14, align 8
  %82 = load i32, ptr %12, align 4
  %83 = call ptr @dissect_e212_mcc_mnc_wmem_packet_str(ptr noundef %79, ptr noundef %80, ptr noundef %81, i32 noundef %82, i32 noundef 0, i1 noundef zeroext true)
  store ptr %83, ptr %17, align 8
  %84 = load i32, ptr %12, align 4
  %85 = add i32 %84, 3
  store i32 %85, ptr %12, align 4
  %86 = load ptr, ptr %14, align 8
  %87 = load i32, ptr @hf_cbsp_lac, align 4
  %88 = load ptr, ptr %10, align 8
  %89 = load i32, ptr %12, align 4
  %90 = call ptr @proto_tree_add_item_ret_uint(ptr noundef %86, i32 noundef %87, ptr noundef %88, i32 noundef %89, i32 noundef 2, i32 noundef 0, ptr noundef %18)
  %91 = load i32, ptr %12, align 4
  %92 = add i32 %91, 2
  store i32 %92, ptr %12, align 4
  %93 = load ptr, ptr %15, align 8
  %94 = load ptr, ptr %17, align 8
  %95 = load i32, ptr %18, align 4
  call void (ptr, ptr, ...) @proto_item_append_text(ptr noundef %93, ptr noundef @.str.166, ptr noundef %94, i32 noundef %95)
  br label %107

96:                                               ; preds = %7
  %97 = load ptr, ptr %14, align 8
  %98 = load i32, ptr @hf_cbsp_lac, align 4
  %99 = load ptr, ptr %10, align 8
  %100 = load i32, ptr %12, align 4
  %101 = call ptr @proto_tree_add_item_ret_uint(ptr noundef %97, i32 noundef %98, ptr noundef %99, i32 noundef %100, i32 noundef 2, i32 noundef 0, ptr noundef %18)
  %102 = load i32, ptr %12, align 4
  %103 = add i32 %102, 2
  store i32 %103, ptr %12, align 4
  %104 = load ptr, ptr %15, align 8
  %105 = load i32, ptr %18, align 4
  call void (ptr, ptr, ...) @proto_item_append_text(ptr noundef %104, ptr noundef @.str.167, i32 noundef %105)
  br label %107

106:                                              ; preds = %7
  store i32 -1, ptr %8, align 4
  store i32 1, ptr %20, align 4
  br label %111

107:                                              ; preds = %7, %96, %78, %68, %50, %24
  %108 = load i32, ptr %12, align 4
  %109 = load i32, ptr %16, align 4
  %110 = sub i32 %108, %109
  store i32 %110, ptr %8, align 4
  store i32 1, ptr %20, align 4
  br label %111

111:                                              ; preds = %107, %106
  call void @llvm.lifetime.end.p0(i64 4, ptr %19) #5
  call void @llvm.lifetime.end.p0(i64 4, ptr %18) #5
  call void @llvm.lifetime.end.p0(i64 8, ptr %17) #5
  call void @llvm.lifetime.end.p0(i64 4, ptr %16) #5
  %112 = load i32, ptr %8, align 4
  ret i32 %112
}