; Function Attrs: null_pointer_is_valid sspstrong uwtable
define internal fastcc noundef i32 @dissect_cell_id_elem(i8 noundef zeroext %0, ptr noundef %1, ptr noundef %2, i32 noundef %3, ptr noundef %4, ptr noundef %5) unnamed_addr #0 {
  %7 = alloca i32, align 4
  %8 = alloca i32, align 4
  call void @llvm.lifetime.start.p0(i64 4, ptr nonnull %7) #4
  call void @llvm.lifetime.start.p0(i64 4, ptr nonnull %8) #4
  switch i8 %0, label %48 [
    i8 0, label %9
    i8 1, label %20
    i8 2, label %29
    i8 4, label %34
    i8 5, label %41
    i8 6, label %46
  ]

9:                                                ; preds = %6
  %10 = tail call ptr @dissect_e212_mcc_mnc_wmem_packet_str(ptr noundef %1, ptr noundef %2, ptr noundef %4, i32 noundef %3, i32 noundef 0, i1 noundef zeroext true)
  %11 = add i32 %3, 3
  %12 = load i32, ptr @hf_cbsp_lac, align 4
  %13 = call ptr @proto_tree_add_item_ret_uint(ptr noundef %4, i32 noundef %12, ptr noundef %1, i32 noundef %11, i32 noundef 2, i32 noundef 0, ptr noundef nonnull %7)
  %14 = add i32 %3, 5
  %15 = load i32, ptr @hf_cbsp_ci, align 4
  %16 = call ptr @proto_tree_add_item_ret_uint(ptr noundef %4, i32 noundef %15, ptr noundef %1, i32 noundef %14, i32 noundef 2, i32 noundef 0, ptr noundef nonnull %8)
  %17 = add i32 %3, 7
  %18 = load i32, ptr %7, align 4
  %19 = load i32, ptr %8, align 4
  call void (ptr, ptr, ...) @proto_item_append_text(ptr noundef %5, ptr noundef nonnull @.str.163, ptr noundef %10, i32 noundef %18, i32 noundef %19)
  br label %46

20:                                               ; preds = %6
  %21 = load i32, ptr @hf_cbsp_lac, align 4
  %22 = call ptr @proto_tree_add_item_ret_uint(ptr noundef %4, i32 noundef %21, ptr noundef %1, i32 noundef %3, i32 noundef 2, i32 noundef 0, ptr noundef nonnull %7)
  %23 = add i32 %3, 2
  %24 = load i32, ptr @hf_cbsp_ci, align 4
  %25 = call ptr @proto_tree_add_item_ret_uint(ptr noundef %4, i32 noundef %24, ptr noundef %1, i32 noundef %23, i32 noundef 2, i32 noundef 0, ptr noundef nonnull %8)
  %26 = add i32 %3, 4
  %27 = load i32, ptr %7, align 4
  %28 = load i32, ptr %8, align 4
  call void (ptr, ptr, ...) @proto_item_append_text(ptr noundef %5, ptr noundef nonnull @.str.164, i32 noundef %27, i32 noundef %28)
  br label %46

29:                                               ; preds = %6
  %30 = load i32, ptr @hf_cbsp_ci, align 4
  %31 = call ptr @proto_tree_add_item_ret_uint(ptr noundef %4, i32 noundef %30, ptr noundef %1, i32 noundef %3, i32 noundef 2, i32 noundef 0, ptr noundef nonnull %8)
  %32 = add i32 %3, 2
  %33 = load i32, ptr %8, align 4
  call void (ptr, ptr, ...) @proto_item_append_text(ptr noundef %5, ptr noundef nonnull @.str.165, i32 noundef %33)
  br label %46

34:                                               ; preds = %6
  %35 = tail call ptr @dissect_e212_mcc_mnc_wmem_packet_str(ptr noundef %1, ptr noundef %2, ptr noundef %4, i32 noundef %3, i32 noundef 0, i1 noundef zeroext true)
  %36 = add i32 %3, 3
  %37 = load i32, ptr @hf_cbsp_lac, align 4
  %38 = call ptr @proto_tree_add_item_ret_uint(ptr noundef %4, i32 noundef %37, ptr noundef %1, i32 noundef %36, i32 noundef 2, i32 noundef 0, ptr noundef nonnull %7)
  %39 = add i32 %3, 5
  %40 = load i32, ptr %7, align 4
  call void (ptr, ptr, ...) @proto_item_append_text(ptr noundef %5, ptr noundef nonnull @.str.166, ptr noundef %35, i32 noundef %40)
  br label %46

41:                                               ; preds = %6
  %42 = load i32, ptr @hf_cbsp_lac, align 4
  %43 = call ptr @proto_tree_add_item_ret_uint(ptr noundef %4, i32 noundef %42, ptr noundef %1, i32 noundef %3, i32 noundef 2, i32 noundef 0, ptr noundef nonnull %7)
  %44 = add i32 %3, 2
  %45 = load i32, ptr %7, align 4
  call void (ptr, ptr, ...) @proto_item_append_text(ptr noundef %5, ptr noundef nonnull @.str.167, i32 noundef %45)
  br label %46

46:                                               ; preds = %41, %34, %29, %20, %9, %6
  %.049 = phi i32 [ %3, %6 ], [ %44, %41 ], [ %39, %34 ], [ %32, %29 ], [ %26, %20 ], [ %17, %9 ]
  %47 = sub i32 %.049, %3
  br label %48

48:                                               ; preds = %6, %46
  %.0 = phi i32 [ %47, %46 ], [ -1, %6 ]
  call void @llvm.lifetime.end.p0(i64 4, ptr nonnull %8) #4
  call void @llvm.lifetime.end.p0(i64 4, ptr nonnull %7) #4
  ret i32 %.0
}